(lp1
(lp2
I0
aI1
aI2
aI3
aI4
aI5
aI6
aI7
aI8
aI9
aI10
aI11
aI12
aI13
aI14
aI15
aI16
aI17
aI18
aI19
aI20
aI21
aI22
aI23
aI24
aI25
aI26
aI27
aI28
aI29
aI30
aI31
aI32
aI33
aI34
aI35
aI36
aI37
aI38
aI39
aI40
aI41
aaI33
aF0.050000000000000003
a(lp3
(lp4
(lp5
F0
aF0.33000000000000002
aF0.33000000000000002
aF0.33000000000000002
aa(lp6
F0.33000000000000002
aF0
aF0.33000000000000002
aF0.33000000000000002
aa(lp7
F0.33000000000000002
aF0.33000000000000002
aF0
aF0.33000000000000002
aa(lp8
F0.33000000000000002
aF0.33000000000000002
aF0.33000000000000002
aF0
aaaF0.9375
a(lp9
F0.80000000000000004
aF0.10000000000000001
aF0.050000000000000003
aF0.02
aF0.014999999999999999
aF0.01
aF0.0050000000000000001
aa(lp10
I1
aI2
aI3
aI4
aI5
aI6
aI7
aaF0.25
a(lp11
F0.25
aF0.25
aF0.25
aF0.25
aaa.