(lp1
(lp2
I0
aI1
aI2
aI3
aI4
aI5
aI6
aI7
aI8
aI9
aI10
aI11
aI12
aI13
aI14
aI15
aI16
aI17
aI18
aI19
aI20
aI21
aI22
aI23
aI24
aI25
aI26
aI27
aI28
aI29
aI30
aI31
aI32
aI33
aI34
aI35
aI36
aI37
aI38
aI39
aI40
aI41
aI42
aI43
aI44
aI45
aI46
aI47
aI48
aI49
aI50
aa(lp3
F0.25948222342397126
aF0.39624266403291142
aF0.4887289131998323
aF0.58490142216892149
aF0.72795041437474761
aF0.83142976109689437
aF0.90278995651523053
aF0.94308737171956836
aF0.9647837065785595
aF0.98043833696270022
aF0.98678943129526919
aF0.99333196124574297
aF0.99931031002740578
aF0.99891722324641796
aF0.99938114762812635
aF1.0012185663383528
aF1.0108245084926835
aF1.0061430923013108
aF1.0482627430005476
aF1.0553377046446224
aF1.1361109625621573
aF1.0035314993564972
aF0.99118143691482441
aF0.98603848996853349
aF1.0310994134455291
aF0.98087666280842301
aF0.97459828603729215
aF0.96834984174682803
aF0.96150287684694935
aF0.95255766555556642
aF0.9408772817987261
aF0.92826381877804132
aF0.9087390607016832
aF0.87689221775375203
aF0.84997147227954473
aF0.82049155767913973
aF0.78099591550325942
aF0.74627130435236266
aF0.72038401772286875
aF0.65924330136812492
aF0.64676003293480311
aF0.59094303136879611
aF0.55917194725499264
aF0.56567660927491992
aF0.46950852172658802
aF0.41737461022004291
aF0.37560923897559001
aF0.28556141460184581
aF0.26371003192674147
aF0.20507778097581639
aF0
aa.