(dp0
S'SNP_TRANS_FREQ'
p1
(dp2
(S'C'
p3
S'G'
p4
tp5
F0.1664600510853558
s(S'A'
p6
S'T'
p7
tp8
F0.1426503073698761
s(g7
g6
tp9
F0.14281397280584493
s(g6
g4
tp10
F0.6878218371885525
s(g3
g7
tp11
F0.6719804311470908
s(g7
g3
tp12
F0.6885459433549382
s(g4
g6
tp13
F0.6704692217289652
s(g4
g7
tp14
F0.1624675218608849
s(g3
g6
tp15
F0.1615595177675533
s(g4
g3
tp16
F0.16706325641014994
s(g7
g4
tp17
F0.16864008383921686
s(g6
g3
tp18
F0.16952785544157142
ssS'TRINUC_MUT_PROB'
p19
(dp20
S'ACC'
p21
F0.0011681980930065984
sS'ATG'
p22
F0.001445991657801918
sS'AAG'
p23
F0.0006608142812049596
sS'AAA'
p24
F0.00044879622746929953
sS'ATC'
p25
F0.0008499114833782835
sS'AAC'
p26
F0.0008939337900918927
sS'ATA'
p27
F0.0010991381423154244
sS'AGG'
p28
F0.0008224617068464907
sS'CCT'
p29
F0.0008123978872462383
sS'CTC'
p30
F0.0005614577639224148
sS'AGC'
p31
F0.0008601317853611526
sS'ACA'
p32
F0.0012972382907161632
sS'AGA'
p33
F0.0008017406333469514
sS'CAT'
p34
F0.0014452215987103328
sS'AAT'
p35
F0.0008038594795377454
sS'ATT'
p36
F0.0007929206497636915
sS'CTG'
p37
F0.0009346227224379664
sS'CTA'
p38
F0.000744408514859584
sS'ACT'
p39
F0.0012468272515005982
sS'CAC'
p40
F0.0010382751906288568
sS'ACG'
p41
F0.010363148102301155
sS'CAA'
p42
F0.0007593708250941685
sS'AGT'
p43
F0.0012537080948964864
sS'CCA'
p44
F0.0006998060041780856
sS'CCG'
p45
F0.006973964271755001
sS'CCC'
p46
F0.0008750078353651296
sS'TAT'
p47
F0.0011006074868724748
sS'GGT'
p48
F0.001176197447152059
sS'TGT'
p49
F0.0013014422188955897
sS'CGA'
p50
F0.00624060022864555
sS'CAG'
p51
F0.0009361628686650323
sS'CGC'
p52
F0.006820470990303538
sS'GAT'
p53
F0.000846350373356705
sS'CGG'
p54
F0.006999522437646343
sS'CTT'
p55
F0.0006651318063404962
sS'TGC'
p56
F0.0008629239255688696
sS'GGG'
p57
F0.0008573317085648227
sS'TAG'
p58
F0.0007469632172213348
sS'GGA'
p59
F0.0007532195734420545
sS'TAA'
p60
F0.0006635362505003807
sS'GGC'
p61
F0.000884678102122208
sS'TAC'
p62
F0.0008452263233930769
sS'GAG'
p63
F0.0005632791566408084
sS'TCG'
p64
F0.00614718439401715
sS'TTA'
p65
F0.0006553715388752054
sS'GAC'
p66
F0.0009277208903736175
sS'CGT'
p67
F0.010292391195039139
sS'TTT'
p68
F0.00044792217565965334
sS'TCA'
p69
F0.0007197193463965366
sS'GCA'
p70
F0.0008571918853181314
sS'GTA'
p71
F0.0008486045028369928
sS'GCC'
p72
F0.0008742773233981538
sS'GTC'
p73
F0.000932097492591193
sS'GCG'
p74
F0.006849626697546492
sS'GTG'
p75
F0.0010463209153615
sS'TTC'
p76
F0.0005355768807653833
sS'GTT'
p77
F0.0008950661991046993
sS'GCT'
p78
F0.0008620799975045645
sS'TGA'
p79
F0.0007174649834627131
sS'TTG'
p80
F0.000762083483585055
sS'TCC'
p81
F0.0007591334889813654
sS'TGG'
p82
F0.0006955321402028632
sS'GAA'
p83
F0.0005332572848090726
sS'TCT'
p84
F0.0007997467413387494
ssS'AVG_MUT_RATE'
p85
F0.0010987132390211135
sS'INDEL_FREQ'
p86
(dp87
I1
F0.26664426523297485
sI2
F0.07004928315412184
sI3
F0.032056451612903214
sI4
F0.04821628584229389
sI5
F0.01416050627240143
sI6
F0.009579413082437272
sI7
F0.003449820788530465
sI8
F0.007490479390681001
sI9
F0.002920586917562723
sI10
F0.003629032258064515
sI11
F0.0017473118279569886
sI12
F0.003444220430107526
sI13
F0.0012236783154121861
sI14
F0.001444892473118279
sI15
F0.0013468862007168455
sI16
F0.0016073028673835121
sI17
F0.0007868503584229389
sI18
F0.0008792562724014334
sI19
F0.0007000448028673833
sI20
F0.0009464605734767022
sI21
F0.0004956317204301073
sI22
F0.0004004256272401433
sI23
F0.00035842293906810025
sI24
F0.000593637992831541
sI25
F0.00034162186379928304
sI26
F0.00022121415770609313
sI27
F0.0002464157706093189
sI28
F0.00026881720430107516
sI29
F0.00014280913978494619
sI30
F0.00018201164874551964
sI31
F0.00014280913978494619
sI32
F0.00016801075268817198
sI33
F8.120519713261647e-05
sI34
F0.00010360663082437272
sI35
F8.120519713261647e-05
sI36
F7.000448028673833e-05
sI37
F5.600358422939067e-05
sI38
F4.2002688172042994e-05
sI39
F3.920250896057346e-05
sI40
F5.04032258064516e-05
sI41
F4.760304659498206e-05
sI42
F5.04032258064516e-05
sI43
F3.920250896057346e-05
sI44
F6.160394265232973e-05
sI45
F1.4000896057347667e-05
sI46
F4.760304659498206e-05
sI47
F2.2401433691756266e-05
sI48
F2.8001792114695334e-05
sI49
F2.800179211469533e-06
sI50
F1.960125448028673e-05
sI51
F5.600358422939066e-06
sI53
F2.800179211469533e-06
sI55
F2.800179211469533e-06
sI56
F5.600358422939066e-06
sI57
F8.400537634408599e-06
sI58
F5.600358422939066e-06
sI59
F2.800179211469533e-06
sI60
F8.400537634408599e-06
sI61
F1.4000896057347667e-05
sI62
F1.1200716845878133e-05
sI64
F8.400537634408599e-06
sI65
F2.800179211469533e-06
sI67
F5.600358422939066e-06
sI68
F2.800179211469533e-06
sI69
F5.600358422939066e-06
sI72
F8.400537634408599e-06
sI73
F8.400537634408599e-06
sI81
F2.800179211469533e-06
sI83
F2.800179211469533e-06
sI84
F2.800179211469533e-06
sI-1
F0.2750784050179211
sI-119
F2.800179211469533e-06
sI-116
F2.800179211469533e-06
sI-97
F2.800179211469533e-06
sI-96
F2.800179211469533e-06
sI-92
F2.800179211469533e-06
sI-91
F2.800179211469533e-06
sI-85
F2.800179211469533e-06
sI-82
F2.800179211469533e-06
sI-80
F2.800179211469533e-06
sI-74
F5.600358422939066e-06
sI-71
F2.800179211469533e-06
sI-68
F2.800179211469533e-06
sI-67
F2.800179211469533e-06
sI-66
F2.800179211469533e-06
sI-65
F2.800179211469533e-06
sI-64
F2.800179211469533e-06
sI-61
F2.800179211469533e-06
sI-58
F5.600358422939066e-06
sI-57
F2.800179211469533e-06
sI-55
F2.800179211469533e-06
sI-54
F2.800179211469533e-06
sI-52
F1.4000896057347667e-05
sI-51
F2.800179211469533e-06
sI-50
F1.6801075268817198e-05
sI-49
F5.600358422939066e-06
sI-48
F2.800179211469533e-06
sI-47
F2.800179211469533e-06
sI-45
F1.1200716845878133e-05
sI-44
F1.960125448028673e-05
sI-43
F1.6801075268817198e-05
sI-42
F8.400537634408599e-06
sI-41
F1.1200716845878133e-05
sI-40
F3.3602150537634395e-05
sI-39
F3.920250896057346e-05
sI-38
F4.480286738351253e-05
sI-37
F4.760304659498206e-05
sI-36
F5.04032258064516e-05
sI-35
F8.960573476702506e-05
sI-34
F9.800627240143365e-05
sI-33
F0.00010360663082437272
sI-32
F0.0002352150537634408
sI-31
F0.00015681003584229385
sI-30
F0.00028001792114695334
sI-29
F0.0002268145161290322
sI-28
F0.00038362455197132607
sI-27
F0.00033322132616487443
sI-26
F0.00042842741935483856
sI-25
F0.0004228270609318995
sI-24
F0.0007924507168458779
sI-23
F0.0005404345878136198
sI-22
F0.0007448476702508959
sI-21
F0.000593637992831541
sI-20
F0.0012880824372759855
sI-19
F0.0008624551971326163
sI-18
F0.0014364919354838705
sI-17
F0.0010332661290322579
sI-16
F0.002290546594982078
sI-15
F0.0019601254480286733
sI-14
F0.0024025537634408596
sI-13
F0.002133736559139784
sI-12
F0.005331541218637991
sI-11
F0.002623767921146953
sI-10
F0.005057123655913977
sI-9
F0.003881048387096773
sI-8
F0.009324596774193545
sI-7
F0.005065524193548386
sI-6
F0.012256384408602147
sI-5
F0.016717069892473114
sI-4
F0.052973790322580636
sI-3
F0.036693548387096764
sI-2
F0.07890905017921145
ssS'SNP_FREQ'
p88
F1.0
sS'TRINUC_TRANS_PROBS'
p89
(dp90
(S'TTA'
p91
S'TAA'
p92
tp93
F0.24470292844149522
s(S'GAA'
p94
S'GCA'
p95
tp96
F0.25891431612559873
s(S'ACG'
p97
S'AGG'
p98
tp99
F0.0859657373194491
s(S'TGA'
p100
S'TTA'
p101
tp102
F0.19370881511873678
s(S'CGA'
p103
S'CAA'
p104
tp105
F0.8037029511860618
s(S'AAG'
p106
S'ATG'
p107
tp108
F0.18172411048316484
s(S'GAC'
p109
S'GCC'
p110
tp111
F0.212276010695614
s(S'CTT'
p112
S'CGT'
p113
tp114
F0.15161799526440412
s(S'GGC'
p115
S'GTC'
p116
tp117
F0.2045363974495218
s(S'GAA'
p118
S'GTA'
p119
tp120
F0.11538717402873869
s(S'AAT'
p121
S'AGT'
p122
tp123
F0.7016371125383971
s(S'TTC'
p124
S'TCC'
p125
tp126
F0.6261700790526907
s(S'CCT'
p127
S'CAT'
p128
tp129
F0.18906159209761766
s(S'GAG'
p130
S'GCG'
p131
tp132
F0.17285861713106296
s(S'ATT'
p133
S'AGT'
p134
tp135
F0.13693789203993287
s(S'CGT'
p136
S'CTT'
p137
tp138
F0.0732668457064198
s(S'CAT'
p139
S'CGT'
p140
tp141
F0.7973031695658471
s(S'GCG'
p142
S'GAG'
p143
tp144
F0.09747160917077352
s(S'GGG'
p145
S'GAG'
p146
tp147
F0.5999008274707905
s(S'GGC'
p148
S'GAC'
p149
tp150
F0.5915581827842721
s(S'TTG'
p151
S'TCG'
p152
tp153
F0.7033824595312878
s(S'ATA'
p154
S'AGA'
p155
tp156
F0.13821677674217642
s(S'CGG'
p157
S'CAG'
p158
tp159
F0.845497287522604
s(S'GCT'
p160
S'GAT'
p161
tp162
F0.14337073439447973
s(S'AAA'
p163
S'AGA'
p164
tp165
F0.5320475078672215
s(S'CTA'
p166
S'CGA'
p167
tp168
F0.1122162713593471
s(S'ACC'
p169
S'AGC'
p170
tp171
F0.17591186388324023
s(S'GCG'
p172
S'GGG'
p173
tp174
F0.10683522605528177
s(S'AAC'
p175
S'AGC'
p176
tp177
F0.5794098677845856
s(S'GTA'
p178
S'GCA'
p179
tp180
F0.6882871765090196
s(S'ACA'
p181
S'AGA'
p182
tp183
F0.18106632407258713
s(S'GCA'
p184
S'GTA'
p185
tp186
F0.5704251281615543
s(S'CCG'
p187
S'CGG'
p188
tp189
F0.05938509564775491
s(S'TAT'
p190
S'TTT'
p191
tp192
F0.13195289046262798
s(S'AGC'
p193
S'ACC'
p194
tp195
F0.19423853957733786
s(S'AGA'
p196
S'ATA'
p197
tp198
F0.19136849579865084
s(S'CCA'
p199
S'CGA'
p200
tp201
F0.14394904458598726
s(S'CTT'
p202
S'CCT'
p203
tp204
F0.6687450670876085
s(S'ACT'
p205
S'AGT'
p206
tp207
F0.19667672135720887
s(S'AGG'
p208
S'ACG'
p209
tp210
F0.17119942542494612
s(S'CAC'
p211
S'CCC'
p212
tp213
F0.15501042671031684
s(S'AGA'
p214
S'AAA'
p215
tp216
F0.5224071955501203
s(S'CTG'
p217
S'CCG'
p218
tp219
F0.7952771884512498
s(S'CAA'
p220
S'CCA'
p221
tp222
F0.213764058620186
s(S'AGC'
p223
S'ATC'
p224
tp225
F0.14691433388564287
s(S'CAA'
p226
S'CGA'
p227
tp228
F0.7005939919178149
s(S'AGT'
p229
S'AAT'
p230
tp231
F0.6665165815222097
s(S'CAG'
p232
S'CCG'
p233
tp234
F0.10491392339735318
s(S'TCA'
p235
S'TAA'
p236
tp237
F0.19440105135262467
s(S'ATA'
p238
S'ACA'
p239
tp240
F0.7293068329115486
s(S'CTC'
p241
S'CCC'
p242
tp243
F0.6689469013459547
s(S'AGG'
p244
S'ATG'
p245
tp246
F0.18623413933445057
s(S'ATC'
p247
S'AGC'
p248
tp249
F0.1490030509414774
s(S'CCC'
p250
S'CTC'
p251
tp252
F0.6024861710534314
s(S'CAT'
p253
S'CTT'
p254
tp255
F0.09733872348270368
s(S'GAT'
p256
S'GGT'
p257
tp258
F0.6378867971189217
s(S'CGA'
p259
S'CCA'
p260
tp261
F0.12157769086199015
s(S'ACG'
p262
S'ATG'
p263
tp264
F0.8411823983876385
s(S'TAA'
p265
S'TGA'
p266
tp267
F0.558025191981144
s(S'AGT'
p268
S'ACT'
p269
tp270
F0.19747164256645597
s(S'GTC'
p271
S'GCC'
p272
tp273
F0.6332407774692582
s(S'CGC'
p274
S'CCC'
p275
tp276
F0.10945037904893178
s(S'CTA'
p277
S'CAA'
p278
tp279
F0.13017816154771014
s(S'TAC'
p280
S'TCC'
p281
tp282
F0.1891931308564553
s(S'GAC'
p283
S'GGC'
p284
tp285
F0.6339944925569702
s(S'ATT'
p286
S'AAT'
p287
tp288
F0.16326530612244897
s(S'AAC'
p289
S'ACC'
p290
tp291
F0.24790390196710738
s(S'TCC'
p292
S'TAC'
p293
tp294
F0.17511933174224345
s(S'ACC'
p295
S'ATC'
p296
tp297
F0.5667842158099308
s(S'GTT'
p298
S'GAT'
p299
tp300
F0.1710016306236467
s(S'AAA'
p301
S'ACA'
p302
tp303
F0.29034615775048217
s(S'AAC'
p304
S'ATC'
p305
tp306
F0.172686230248307
s(S'ACA'
p307
S'ATA'
p308
tp309
F0.6306006102457042
s(S'GAG'
p310
S'GGG'
p311
tp312
F0.6706103494029191
s(S'AGT'
p313
S'ATT'
p314
tp315
F0.13601177591133431
s(S'GCA'
p316
S'GGA'
p317
tp318
F0.1923981080239046
s(S'TTT'
p319
S'TAT'
p320
tp321
F0.1771166862562315
s(S'CCA'
p322
S'CTA'
p323
tp324
F0.6153137281474454
s(S'ATG'
p325
S'AGG'
p326
tp327
F0.1025479048220678
s(S'TAG'
p328
S'TCG'
p329
tp330
F0.11541808688084705
s(S'GAT'
p331
S'GTT'
p332
tp333
F0.21873937370552413
s(S'TGT'
p334
S'TTT'
p335
tp336
F0.18517829374941855
s(S'AAG'
p337
S'ACG'
p338
tp339
F0.15206028284114728
s(S'ACT'
p340
S'ATT'
p341
tp342
F0.6696075183512632
s(S'CGC'
p343
S'CAC'
p344
tp345
F0.788658683666437
s(S'TCC'
p346
S'TGC'
p347
tp348
F0.20820405727923627
s(S'AAA'
p349
S'ATA'
p350
tp351
F0.17760633438229623
s(S'GGC'
p352
S'GCC'
p353
tp354
F0.20390541976620616
s(S'GCC'
p355
S'GAC'
p356
tp357
F0.20381566572618567
s(S'ATC'
p358
S'AAC'
p359
tp360
F0.2159080403094086
s(S'GAA'
p361
S'GGA'
p362
tp363
F0.6256985098456626
s(S'CTA'
p364
S'CCA'
p365
tp366
F0.7576055670929428
s(S'TCT'
p367
S'TGT'
p368
tp369
F0.2892653359395052
s(S'GGA'
p370
S'GCA'
p371
tp372
F0.21389506580924333
s(S'TCG'
p373
S'TGG'
p374
tp375
F0.12113335735241135
s(S'GTA'
p376
S'GAA'
p377
tp378
F0.12373416572901165
s(S'CAG'
p379
S'CTG'
p380
tp381
F0.10117226379621778
s(S'AAT'
p382
S'ACT'
p383
tp384
F0.13534976263613516
s(S'ATG'
p385
S'AAG'
p386
tp387
F0.09796799326173931
s(S'CCT'
p388
S'CTT'
p389
tp390
F0.6428433081541739
s(S'CCT'
p391
S'CGT'
p392
tp393
F0.1680950997482084
s(S'TAC'
p394
S'TGC'
p395
tp396
F0.686294527290626
s(S'GTT'
p397
S'GGT'
p398
tp399
F0.24298965489588067
s(S'GGA'
p400
S'GAA'
p401
tp402
F0.6085401766933108
s(S'GAC'
p403
S'GTC'
p404
tp405
F0.1537294967474159
s(S'GCG'
p406
S'GTG'
p407
tp408
F0.7956931647739447
s(S'TTA'
p409
S'TCA'
p410
tp411
F0.5610924649637468
s(S'TTT'
p412
S'TGT'
p413
tp414
F0.29100636323106227
s(S'TAA'
p415
S'TCA'
p416
tp417
F0.1957827508426895
s(S'ATC'
p418
S'ACC'
p419
tp420
F0.635088908749114
s(S'AAG'
p421
S'AGG'
p422
tp423
F0.6662156066756879
s(S'TAG'
p424
S'TGG'
p425
tp426
F0.7586844586264414
s(S'CAA'
p427
S'CTA'
p428
tp429
F0.08564194946199913
s(S'CTG'
p430
S'CAG'
p431
tp432
F0.09914214555852781
s(S'CAC'
p433
S'CTC'
p434
tp435
F0.09393008498329485
s(S'GAG'
p436
S'GTG'
p437
tp438
F0.156531033466018
s(S'GGT'
p439
S'GCT'
p440
tp441
F0.17351446592272923
s(S'TGC'
p442
S'TCC'
p443
tp444
F0.18881767583066283
s(S'CGG'
p445
S'CCG'
p446
tp447
F0.05969258589511754
s(S'ATG'
p448
S'ACG'
p449
tp450
F0.7994841019161929
s(S'CCG'
p451
S'CAG'
p452
tp453
F0.09450433772550727
s(S'GGG'
p454
S'GTG'
p455
tp456
F0.22354107912108345
s(S'GCC'
p457
S'GGC'
p458
tp459
F0.20811500738949348
s(S'GCC'
p460
S'GTC'
p461
tp462
F0.5880693268843208
s(S'TAT'
p463
S'TCT'
p464
tp465
F0.13677161111538758
s(S'TCT'
p466
S'TAT'
p467
tp468
F0.1910205532192146
s(S'AGA'
p469
S'ACA'
p470
tp471
F0.28622430865122883
s(S'CTC'
p472
S'CAC'
p473
tp474
F0.1557092146132229
s(S'TGG'
p475
S'TCG'
p476
tp477
F0.14482064122802243
s(S'CGA'
p478
S'CTA'
p479
tp480
F0.07471935795194799
s(S'GTG'
p481
S'GGG'
p482
tp483
F0.15368224796910374
s(S'ATA'
p484
S'AAA'
p485
tp486
F0.13247639034627492
s(S'TGC'
p487
S'TTC'
p488
tp489
F0.23758925057626357
s(S'TGC'
p490
S'TAC'
p491
tp492
F0.5735930735930735
s(S'CGC'
p493
S'CTC'
p494
tp495
F0.10189093728463129
s(S'CCC'
p496
S'CGC'
p497
tp498
F0.17822624764452008
s(S'CGT'
p499
S'CAT'
p500
tp501
F0.8409695137586203
s(S'TGT'
p502
S'TCT'
p503
tp504
F0.18750415332066295
s(S'TGA'
p505
S'TAA'
p506
tp507
F0.5695635956732562
s(S'TCG'
p508
S'TAG'
p509
tp510
F0.07499099284574605
s(S'GTC'
p511
S'GGC'
p512
tp513
F0.21193970646568822
s(S'GCT'
p514
S'GGT'
p515
tp516
F0.1976457626627236
s(S'TGG'
p517
S'TTG'
p518
tp519
F0.23901801752762505
s(S'TGT'
p520
S'TAT'
p521
tp522
F0.6273175529299185
s(S'TTT'
p523
S'TCT'
p524
tp525
F0.5318769505127062
s(S'TCT'
p526
S'TTT'
p527
tp528
F0.5197141108412802
s(S'CCA'
p529
S'CAA'
p530
tp531
F0.2407372272665673
s(S'TAA'
p532
S'TTA'
p533
tp534
F0.24619205717616646
s(S'CAC'
p535
S'CGC'
p536
tp537
F0.7510594883063884
s(S'TCG'
p538
S'TTG'
p539
tp540
F0.8038756498018426
s(S'ATT'
p541
S'ACT'
p542
tp543
F0.6997968018376182
s(S'CTT'
p544
S'CAT'
p545
tp546
F0.17963693764798738
s(S'ACC'
p547
S'AAC'
p548
tp549
F0.257303920306829
s(S'CGT'
p550
S'CCT'
p551
tp552
F0.08576364053495998
s(S'AGC'
p553
S'AAC'
p554
tp555
F0.6588471265370193
s(S'TTG'
p556
S'TGG'
p557
tp558
F0.20533945397438996
s(S'TAT'
p559
S'TGT'
p560
tp561
F0.7312754984219845
s(S'CAT'
p562
S'CCT'
p563
tp564
F0.10535810695144915
s(S'GTC'
p565
S'GAC'
p566
tp567
F0.15481951606505356
s(S'CAG'
p568
S'CGG'
p569
tp570
F0.793913812806429
s(S'TCC'
p571
S'TTC'
p572
tp573
F0.6166766109785203
s(S'GAT'
p574
S'GCT'
p575
tp576
F0.1433738291755541
s(S'TTA'
p577
S'TGA'
p578
tp579
F0.19420460659475802
s(S'CCC'
p580
S'CAC'
p581
tp582
F0.2192875813020485
s(S'GTA'
p583
S'GGA'
p584
tp585
F0.1879786577619687
s(S'TGG'
p586
S'TAG'
p587
tp588
F0.6161613412443525
s(S'TAG'
p589
S'TTG'
p590
tp591
F0.12589745449271159
s(S'AGG'
p592
S'AAG'
p593
tp594
F0.6425664352406033
s(S'TTC'
p595
S'TGC'
p596
tp597
F0.253663215691463
s(S'TCA'
p598
S'TGA'
p599
tp600
F0.23509137345334621
s(S'GTG'
p601
S'GAG'
p602
tp603
F0.09466418076086475
s(S'GCT'
p604
S'GTT'
p605
tp606
F0.6589835029427966
s(S'CTG'
p607
S'CGG'
p608
tp609
F0.10558066599022231
s(S'TCA'
p610
S'TTA'
p611
tp612
F0.5705075751940291
s(S'GGA'
p613
S'GTA'
p614
tp615
F0.17756475749744577
s(S'ACG'
p616
S'AAG'
p617
tp618
F0.07285186429291232
s(S'GGT'
p619
S'GAT'
p620
tp621
F0.5610173386787876
s(S'TAC'
p622
S'TTC'
p623
tp624
F0.12451234185291865
s(S'TTG'
p625
S'TAG'
p626
tp627
F0.0912780864943223
s(S'AAT'
p628
S'ATT'
p629
tp630
F0.16301312482546776
s(S'TGA'
p631
S'TCA'
p632
tp633
F0.23672758920800696
s(S'CTC'
p634
S'CGC'
p635
tp636
F0.17534388404082235
s(S'CGG'
p637
S'CTG'
p638
tp639
F0.09481012658227848
s(S'ACT'
p640
S'AAT'
p641
tp642
F0.1337157602915279
s(S'ACA'
p643
S'AAA'
p644
tp645
F0.18833306568170868
s(S'GTT'
p646
S'GCT'
p647
tp648
F0.5860087144804726
s(S'GGT'
p649
S'GTT'
p650
tp651
F0.2654681953984832
s(S'TTC'
p652
S'TAC'
p653
tp654
F0.12016670525584626
s(S'GGG'
p655
S'GCG'
p656
tp657
F0.17655809340812595
s(S'GCA'
p658
S'GAA'
p659
tp660
F0.23717676381454103
s(S'CCG'
p661
S'CTG'
p662
tp663
F0.8461105666267378
s(S'GTG'
p664
S'GCG'
p665
tp666
F0.7516535712700315
ss.